(lp0
ccopy_reg
_reconstructor
p1
(coauth2
Consumer
p2
c__builtin__
object
p3
Ntp4
Rp5
(dp6
S'secret'
p7
S'z3eKAKrhEx9xnw0eNsfwzxx31P281bHomUNKEC6qZevcofuEaW'
p8
sS'key'
p9
S'2IrJvoGvLc1YNDq2huog7KH7j'
p10
sbag1
(g2
g3
Ntp11
Rp12
(dp13
g7
S'zUIjmzlvAVuLkWeGlALGQ2FDUIRvwViU29zDZVf1f7FewAW1tg'
p14
sg9
S'HMl9V7O3RRRtcyVCJQNybwufE'
p15
sbag1
(g2
g3
Ntp16
Rp17
(dp18
g7
S'axIavcBxctsOgycATysmLvYIPu5S1eftnBz0kQQkfyUFC0dipr'
p19
sg9
S'Waj1wJZhaQlsE1Zjo5lR4Zk0r'
p20
sbag1
(g2
g3
Ntp21
Rp22
(dp23
g7
S'Cq9tnboLVJYekWoIvuq0a3JcOaZb3Ug183mZVCbxCId0U1JqFH'
p24
sg9
S'zrXXlouAPIiYsykYNGzYWipl8'
p25
sbag1
(g2
g3
Ntp26
Rp27
(dp28
g7
S'wizZHHEz9rLUNxOhCwQFuYtjzAxvMuNYLewoDDPdnFgqmdOj0A'
p29
sg9
S'2XWJwZ9owcKLU68FJ2oJlLOUD'
p30
sbag1
(g2
g3
Ntp31
Rp32
(dp33
g7
S'xKkZoNBpCKAAJPRTrIfN0gFk9GEuQofoSnGS6e5jPTMPEKuLKb'
p34
sg9
S'IXpW7cb4Vx9vNdLpXXTH9Sl3f'
p35
sbag1
(g2
g3
Ntp36
Rp37
(dp38
g7
S'DS3AKZ3JUsFxNCALXn5Ikp8hbQoKWLsAxRkQJ3Hoy3ikD2PA4M'
p39
sg9
S'JhzsRJbHvwL8EfMCVuZKCaSGq'
p40
sbag1
(g2
g3
Ntp41
Rp42
(dp43
g7
S'm3CvGEb49qItjCqPq41b84tUWic2ws1kAxOh2znD73CYavqnTU'
p44
sg9
S'KzTGgdAnpEf472DutmyDitPp5'
p45
sbag1
(g2
g3
Ntp46
Rp47
(dp48
g7
S'iZwjMCfdofLQPch4NrAz7eNTf3MXQdd04181Aq97cwoHvBOSZa'
p49
sg9
S'ewZ7CIaIrNw4y6gKXNqRWHsmK'
p50
sbag1
(g2
g3
Ntp51
Rp52
(dp53
g7
S'KFWGorSg808HbmKqltFN66WhviqK9Oeb9Ta2G0pKDlHAm3E1pt'
p54
sg9
S'Y7knzEeeuWQit4CnIEspWmm6Z'
p55
sba.