(lp0
ccopy_reg
_reconstructor
p1
(coauth2
Token
p2
c__builtin__
object
p3
Ntp4
Rp5
(dp6
S'secret'
p7
S'l0RaCGbYqpPhCxeN6KgiQx1WpwCCMr1b4YOJGzZPQ42Dp'
p8
sS'key'
p9
S'3105547012-EkZOfGoF7XpqqFt6Hd00ULS6fBJOEYdFPQ2jAHp'
p10
sbag1
(g2
g3
Ntp11
Rp12
(dp13
g7
S'GXXyDmZQ6vuGe6J5xRIh0yzR7B8Z5R2n8LLVw4f46abSP'
p14
sg9
S'3105547012-tAA5O2dnvxeiRXliDhXVg3Mw2BoWff3Ym5vdw0K'
p15
sbag1
(g2
g3
Ntp16
Rp17
(dp18
g7
S'QHYXMudfgYobTj0WFhdcm1lviZYZRxh0NfSGGlHbPMK4a'
p19
sg9
S'3105547012-9ZQsgPjPw12TaTHAITKqpHZC42vKAVRXCLJFTGb'
p20
sbag1
(g2
g3
Ntp21
Rp22
(dp23
g7
S'P0qbQJ5a7xSdAnUn8tJ5680NroqYTeaYCLLJI8fAyHNq7'
p24
sg9
S'3105547012-wdQfiHPuAZhVX63WWA6C6XIxapDU37v1ZxuwXRE'
p25
sbag1
(g2
g3
Ntp26
Rp27
(dp28
g7
S'OT6l84gme665MtDWUaLGF70yJoXzq68yZVF2r7459t2H4'
p29
sg9
S'3105547012-Qucul8Dy7AV95HBJxGR4xKGn6nRXtM62p9Hg3fD'
p30
sbag1
(g2
g3
Ntp31
Rp32
(dp33
g7
S'TfeECrwuRLTv16RjvAldyDthhKtIPrDUvQSvCnueltAzt'
p34
sg9
S'3105547012-1PGtkCw6u0bhKqJGdOvR9mENrCGZb7HWVHqRcpd'
p35
sbag1
(g2
g3
Ntp36
Rp37
(dp38
g7
S'iO5TDLAqIefLLAcxQhmUNMAfPxPNUjkALu0BYz22Yfl0u'
p39
sg9
S'3105547012-2ul8uBjQctDTEQozxMDPiTwZs4lajfwNhDOOCZW'
p40
sbag1
(g2
g3
Ntp41
Rp42
(dp43
g7
S'j3YrPlorsG4dSjjzQjhraQHBHxU39NDrPwDVKjCglpUhz'
p44
sg9
S'3105547012-jbAtbHqDF7n6WojKr5m3FBaHDjloh5BLIvT6gRr'
p45
sbag1
(g2
g3
Ntp46
Rp47
(dp48
g7
S'LEybM4fTkG7po2oTV1lFxAgbvH9jlR3ebZOZ2YncOC40m'
p49
sg9
S'3105547012-993itSDfTaxSOGHWhB4B39fRElHPolRE1EG3y7r'
p50
sbag1
(g2
g3
Ntp51
Rp52
(dp53
g7
S'dxLgG0OsFh3DVzyUfQ3WHpRoeKPmhMUamOEjWqyuADQ6I'
p54
sg9
S'3105547012-GIiwRqyNEKGveByqr1nHYZch1PdETndCsawnMTi'
p55
sba.